((dp1
S'old_model'
p2
ccopy_reg
_reconstructor
p3
(cpandas.core.frame
DataFrame
p4
c__builtin__
object
p5
NtRp6
(dp7
S'_metadata'
p8
(lp9
sS'_typ'
p10
S'dataframe'
p11
sS'_data'
p12
g3
(cpandas.core.internals
BlockManager
p13
g5
NtRp14
((lp15
cpandas.indexes.base
_new_Index
p16
(cpandas.indexes.numeric
Int64Index
p17
(dp18
S'data'
p19
cnumpy.core.multiarray
_reconstruct
p20
(cnumpy
ndarray
p21
(I0
tS'b'
tRp22
(I1
(I15
tcnumpy
dtype
p23
(S'i8'
I0
I1
tRp24
(I3
S'<'
NNNI-1
I-1
I0
tbI00
S'\x00\x00\x00\x00\x00\x00\x00\x00\x01\x00\x00\x00\x00\x00\x00\x00\x02\x00\x00\x00\x00\x00\x00\x00\x03\x00\x00\x00\x00\x00\x00\x00\x04\x00\x00\x00\x00\x00\x00\x00\x05\x00\x00\x00\x00\x00\x00\x00\x06\x00\x00\x00\x00\x00\x00\x00\x07\x00\x00\x00\x00\x00\x00\x00\x08\x00\x00\x00\x00\x00\x00\x00\t\x00\x00\x00\x00\x00\x00\x00\n\x00\x00\x00\x00\x00\x00\x00\x0b\x00\x00\x00\x00\x00\x00\x00\x0c\x00\x00\x00\x00\x00\x00\x00\r\x00\x00\x00\x00\x00\x00\x00\x0e\x00\x00\x00\x00\x00\x00\x00'
tbsS'name'
p25
NstRp26
ag16
(cpandas.indexes.base
Index
p27
(dp28
g19
g20
(g21
(I0
tS'b'
tRp29
(I1
(I14
tg23
(S'O8'
I0
I1
tRp30
(I3
S'|'
NNNI-1
I-1
I63
tbI00
(lp31
S'nitrogen_source'
p32
aS'nitrogen_ratio'
p33
aS'carbon_source_from_5e4'
p34
aS'oxygen_source'
p35
aS'fe_precipitation'
p36
aS'carbon_precip'
p37
aS'diffusion_constant'
p38
aS'ma_op_fe_n_rate_const'
p39
aS'primary_ox_rate_const'
p40
aS'C'
aS'N-'
p41
aS'S-'
p42
aS'CH4'
p43
aS'score'
p44
atbsg25
NstRp45
a(lp46
g20
(g21
(I0
tS'b'
tRp47
(I1
(I15
I14
tg30
I00
(lp48
F0
aF0.050000000000000003
aF55000
aF6600
aF0.20000000000000001
aF0.20000000000000001
aF50
aF1
aF1.5
aF1
aF1
aF1
aF1
acnumpy.core.multiarray
scalar
p49
(g23
(S'f8'
I0
I1
tRp50
(I3
S'<'
NNNI-1
I-1
I0
tbS'\x19\xa3\x8ez\xb4V\x01\xc0'
tRp51
aF89.98783832900321
aF0.03497899570531493
aF57890.989273363826
aF35125.093295990489
aF0.20215900100583753
aF0.22176947626989446
aF81.369945465802246
aF1.5877689392925052
aF1.8711709355011337
aF1.2149720309877354
aF1.4428352290899831
aF0.87906361127855859
aF7.6074625129717806
ag51
aF193.23998475295824
aF0.049282175658729499
aF60232.357864461599
aF33650.981981502584
aF0.20013527706811685
aF0.21667803710104919
aF69.805190373239839
aF3.0142730786913807
aF1.8711709355011337
aF1.1084321779843174
aF1.1803145134834647
aF0.78798298629269803
aF17.011116493984019
ag51
aF210.28127327877817
aF0.051761598159576705
aF61370.273848331839
aF35305.245533191119
aF0.19966605122706726
aF0.21663945450890773
aF69.841574378537274
aF5.1213397837774721
aF1.8711709355011337
aF1.0783088095032771
aF0.97140323845564502
aF0.87594051075230672
aF17.011116493984019
ag51
aF214.29076838959156
aF0.051872648719295325
aF59250.638399233241
aF38391.137576567788
aF0.19954467718682367
aF0.21656830437573044
aF69.839145227078419
aF5.1213397837774721
aF1.8711709355011337
aF1.1009823999545352
aF1.1481413436118997
aF0.63299039803290569
aF17.011116493984019
ag51
aF210.96106765303003
aF0.05172327543827876
aF63602.80102137247
aF38461.598502093169
aF0.1993539673641983
aF0.21654512962035738
aF69.840638762186771
aF5.1213397837774721
aF1.8711709355011337
aF1.0814468639845745
aF1.0067638514911914
aF0.63299039803290569
aF17.011116493984019
ag51
aF209.90530207725968
aF0.051468759116618121
aF63602.80102137247
aF38537.332280419214
aF0.19955673516411651
aF0.21650892200895286
aF69.836790277100178
aF5.1213397837774721
aF1.8711709355011337
aF1.0681155066193857
aF1.0786185853143819
aF0.63299039803290569
aF17.011116493984019
ag51
aF209.90530207725968
aF0.051715572729662221
aF63602.80102137247
aF38549.319293616689
aF0.1993363314350419
aF0.21646829165486492
aF69.834939512458405
aF5.1213397837774721
aF1.8711709355011337
aF1.0519677777796144
aF1.1026478340847223
aF0.63299039803290569
aF17.011116493984019
ag51
aF209.90530207725968
aF0.051662192171957638
aF63602.80102137247
aF38534.324098885612
aF0.1993950770373708
aF0.21650311718819906
aF69.836940482951547
aF5.1213397837774721
aF1.8711709355011337
aF1.0519677777796144
aF1.1322862996204215
aF0.63299039803290569
aF17.011116493984019
ag51
aF209.90530207725968
aF0.051828443993033602
aF63602.80102137247
aF38568.40008148957
aF0.1993732079366361
aF0.21648324910574016
aF69.838249645314178
aF5.1213397837774721
aF1.8711709355011337
aF1.0519677777796144
aF1.1322862996204215
aF0.63299039803290569
aF17.011116493984019
ag51
aF209.90530207725968
aF0.052576481877257386
aF63602.80102137247
aF38608.64334682074
aF0.1993732079366361
aF0.21651483094240159
aF69.84109971898387
aF5.1213397837774721
aF1.8711709355011337
aF1.0519677777796144
aF1.1322862996204215
aF0.63299039803290569
aF17.011116493984019
ag51
aF209.90530207725968
aF0.052576481877257386
aF63602.80102137247
aF38664.024833820251
aF0.1993732079366361
aF0.21647837412293117
aF69.842616957388898
aF5.1213397837774721
aF1.8711709355011337
aF1.0519677777796144
aF1.1322862996204215
aF0.63299039803290569
aF17.011116493984019
ag51
aF209.90530207725968
aF0.052576481877257386
aF63602.80102137247
aF38664.024833820251
aF0.1993732079366361
aF0.21650201547558731
aF69.838384223001938
aF5.1213397837774721
aF1.8711709355011337
aF1.0519677777796144
aF1.1322862996204215
aF0.63299039803290569
aF17.011116493984019
ag51
aF209.90530207725968
aF0.052576481877257386
aF63602.80102137247
aF38664.024833820251
aF0.1993732079366361
aF0.21646852709832376
aF69.838384223001938
aF5.1213397837774721
aF1.8711709355011337
aF1.0519677777796144
aF1.1322862996204215
aF0.63299039803290569
aF17.011116493984019
ag51
aF209.90530207725968
aF0.052576481877257386
aF63602.80102137247
aF38664.024833820251
aF0.1993732079366361
aF0.21646852709832376
aF69.838384223001938
aF5.1213397837774721
aF1.8711709355011337
aF1.0519677777796144
aF1.1322862996204215
aF0.63299039803290569
aF17.011116493984019
ag51
atba(lp52
g16
(g17
(dp53
g19
g20
(g21
(I0
tS'b'
tRp54
(I1
(I15
tg24
I00
S'\x00\x00\x00\x00\x00\x00\x00\x00\x01\x00\x00\x00\x00\x00\x00\x00\x02\x00\x00\x00\x00\x00\x00\x00\x03\x00\x00\x00\x00\x00\x00\x00\x04\x00\x00\x00\x00\x00\x00\x00\x05\x00\x00\x00\x00\x00\x00\x00\x06\x00\x00\x00\x00\x00\x00\x00\x07\x00\x00\x00\x00\x00\x00\x00\x08\x00\x00\x00\x00\x00\x00\x00\t\x00\x00\x00\x00\x00\x00\x00\n\x00\x00\x00\x00\x00\x00\x00\x0b\x00\x00\x00\x00\x00\x00\x00\x0c\x00\x00\x00\x00\x00\x00\x00\r\x00\x00\x00\x00\x00\x00\x00\x0e\x00\x00\x00\x00\x00\x00\x00'
tbsg25
NstRp55
a(dp56
S'0.14.1'
p57
(dp58
S'axes'
p59
g15
sS'blocks'
p60
(lp61
(dp62
S'mgr_locs'
p63
c__builtin__
slice
p64
(I0
I15
I1
tRp65
sS'values'
p66
g47
sasstbsbsS'new_model'
p67
g3
(g4
g5
NtRp68
(dp69
g8
g9
sg10
g11
sg12
g3
(g13
g5
NtRp70
((lp71
g16
(g17
(dp72
g19
g20
(g21
(I0
tS'b'
tRp73
(I1
(I18
tg24
I00
S'\x00\x00\x00\x00\x00\x00\x00\x00\x01\x00\x00\x00\x00\x00\x00\x00\x02\x00\x00\x00\x00\x00\x00\x00\x03\x00\x00\x00\x00\x00\x00\x00\x04\x00\x00\x00\x00\x00\x00\x00\x05\x00\x00\x00\x00\x00\x00\x00\x06\x00\x00\x00\x00\x00\x00\x00\x07\x00\x00\x00\x00\x00\x00\x00\x08\x00\x00\x00\x00\x00\x00\x00\t\x00\x00\x00\x00\x00\x00\x00\n\x00\x00\x00\x00\x00\x00\x00\x0b\x00\x00\x00\x00\x00\x00\x00\x0c\x00\x00\x00\x00\x00\x00\x00\r\x00\x00\x00\x00\x00\x00\x00\x0e\x00\x00\x00\x00\x00\x00\x00\x0f\x00\x00\x00\x00\x00\x00\x00\x10\x00\x00\x00\x00\x00\x00\x00\x11\x00\x00\x00\x00\x00\x00\x00'
tbsg25
NstRp74
ag16
(g27
(dp75
g19
g20
(g21
(I0
tS'b'
tRp76
(I1
(I17
tg30
I00
(lp77
g32
ag33
ag34
ag35
aS'sminus_precipitation'
p78
ag36
ag37
ag38
ag39
aS'ma_op_s_n_rate_const'
p79
aS'ma_op_ch4_n_rate_const'
p80
ag40
aS'C'
ag41
ag42
ag43
ag44
atbsg25
NstRp81
a(lp82
g20
(g21
(I0
tS'b'
tRp83
(I1
(I18
I17
tg30
I00
(lp84
F96.5
aF0.050000000000000003
aF55000
aF6600
aF0.20000000000000001
aF0.20000000000000001
aF0.20000000000000001
aF50
aF1
aF0.25
aF50
aF1.5
aF1
aF1
aF1
aF1
ag49
(g50
S'R\xe6@=\xfa@\x08\xc0'
tRp85
aF68.740127528224036
aF0.010123462258063737
aF87001.284707332205
aF17299.36291404019
aF0.1194670748658313
aF0.27657274558007394
aF0.19019103996893189
aF67.370367689762418
aF2.7309919215650167
aF0.37811136417124724
aF20.781432030966926
aF1.7129274297740855
aF1.3057046449609502
aF4.4077255960615851
aF0.61685801992973321
aF4.0851291510390828
ag49
(g50
S'\xe3\xb5\x85\x1c\xb9\xaa\x01\xc0'
tRp86
aF87.893968764866571
aF0.087218548788384004
aF106095.20081179077
aF13768.534312083364
aF0.064193650461447205
aF0.23587329510010985
aF0.1916703557151585
aF81.40150421184876
aF4.5398330321517921
aF0.30026752428053
aF49.849805314453448
aF2.1884193891438812
aF0.98798435357206427
aF1.0096016573261046
aF1.4469948936671582
aF2.5128957618066856
ag49
(g50
S'R\x06\x87\xe3\xa53\x01\xc0'
tRp87
aF86.251561559285392
aF0.076671997097593036
aF76161.895385126874
aF17501.197672522652
aF0.097372940953503226
aF0.2004639953795013
aF0.19336623830292651
aF107.70321263614724
aF5.9154605303075893
aF0.25316346505715437
aF37.460689568579951
aF2.1884193891438812
aF1.0419311191473923
aF5.9640619180131971
aF1.3716086262866944
aF2.1098408812983052
ag49
(g50
S'{\xd6\x84\x10\x85\xa0\x00\xc0'
tRp88
aF85.837469071047622
aF0.07131221859544673
aF101492.859466266
aF17501.197672522652
aF0.076005679016810837
aF0.18376944605285803
aF0.19286860484787946
aF111.14759651002643
aF6.4517995404923987
aF0.28290455025278671
aF46.935485205837679
aF2.1884193891438812
aF1.0827019783810021
aF5.9640619180131971
aF1.2841025470133138
aF2.4807696972650422
ag88
aF86.224303438671157
aF0.073083237197844389
aF79682.556899756077
aF17501.197672522652
aF0.09200019213164376
aF0.18333700394754399
aF0.19256603592594082
aF112.81623682633604
aF6.7715232959690272
aF0.30117517900057827
aF37.510104817469809
aF2.1884193891438812
aF1.0783002389449683
aF5.9640619180131971
aF1.309683656417683
aF2.0858603086117538
ag49
(g50
S'\x9cB\xa9d\xe0\x11\x00\xc0'
tRp89
aF86.060935031005428
aF0.072677980541735035
aF79682.556899756077
aF17501.197672522652
aF0.095344117206448378
aF0.18337852992521358
aF0.19254207501650747
aF114.78958757343401
aF6.7643570355887777
aF0.31750809118135859
aF41.125072785294286
aF2.1884193891438812
aF1.0817987979733881
aF5.9640619180131971
aF1.309683656417683
aF2.0957018572832049
ag89
aF86.616574619264796
aF0.072313388242390766
aF79682.556899756077
aF17501.197672522652
aF0.093084134309981859
aF0.18331078048939811
aF0.19253299859668804
aF114.78958757343401
aF6.7821769126566416
aF0.27618036639439225
aF44.808935185447524
aF2.1884193891438812
aF1.0831817125644823
aF5.9640619180131971
aF1.309683656417683
aF2.0935965057422243
ag89
aF85.401409069469651
aF0.072187966579779606
aF79682.556899756077
aF17501.197672522652
aF0.089685715511281891
aF0.1834882743872733
aF0.19250619681860218
aF114.78958757343401
aF6.7985305053885412
aF0.27618036639439225
aF44.836126260442654
aF2.1884193891438812
aF1.0848380901669685
aF5.9640619180131971
aF1.309683656417683
aF2.0939780367794389
ag89
aF86.283597665674876
aF0.072187966579779606
aF79682.556899756077
aF17501.197672522652
aF0.086633305359351542
aF0.18347008743488177
aF0.1925515369467431
aF114.78958757343401
aF6.7623677348856148
aF0.27618036639439225
aF44.903185895276209
aF2.1884193891438812
aF1.0843239863728513
aF5.9640619180131971
aF1.309683656417683
aF2.0947403191035572
ag89
aF88.726708207460661
aF0.072187966579779606
aF79682.556899756077
aF17501.197672522652
aF0.082031863888712309
aF0.18346813626898159
aF0.19250108434331409
aF114.78958757343401
aF6.6716242680681077
aF0.27618036639439225
aF44.903185895276209
aF2.1884193891438812
aF1.0841205965304264
aF5.9640619180131971
aF1.309683656417683
aF2.0957552732808327
ag89
aF88.881667088641507
aF0.072187966579779606
aF79682.556899756077
aF17501.197672522652
aF0.081178531535716747
aF0.18346813626898159
aF0.192460553835791
aF114.78958757343401
aF6.5475567314315377
aF0.27618036639439225
aF44.903185895276209
aF2.1884193891438812
aF1.0841979267072737
aF5.9640619180131971
aF1.309683656417683
aF2.0954146983232347
ag89
aF88.67232551794595
aF0.072187966579779606
aF79682.556899756077
aF17501.197672522652
aF0.083258439218769187
aF0.18346813626898159
aF0.19246613143065316
aF114.78958757343401
aF6.5475567314315377
aF0.27618036639439225
aF44.903185895276209
aF2.1884193891438812
aF1.0838747638622097
aF5.9640619180131971
aF1.309683656417683
aF2.0950203300550236
ag89
aF88.550143409625264
aF0.072187966579779606
aF79682.556899756077
aF17501.197672522652
aF0.083741675569217966
aF0.18346813626898159
aF0.1924684844670736
aF114.78958757343401
aF6.5475567314315377
aF0.27618036639439225
aF44.903185895276209
aF2.1884193891438812
aF1.0838747638622097
aF5.9640619180131971
aF1.309683656417683
aF2.0955528493338971
ag89
aF88.485811367307349
aF0.072187966579779606
aF79682.556899756077
aF17501.197672522652
aF0.08435676498474054
aF0.18346813626898159
aF0.19247602518302329
aF114.78958757343401
aF6.5475567314315377
aF0.27618036639439225
aF44.903185895276209
aF2.1884193891438812
aF1.0838747638622097
aF5.9640619180131971
aF1.309683656417683
aF2.0955528493338971
ag89
aF88.408880021816543
aF0.072187966579779606
aF79682.556899756077
aF17501.197672522652
aF0.084013531266000974
aF0.18346813626898159
aF0.19247602518302329
aF114.78958757343401
aF6.5475567314315377
aF0.27618036639439225
aF44.903185895276209
aF2.1884193891438812
aF1.0838747638622097
aF5.9640619180131971
aF1.309683656417683
aF2.0955528493338971
ag89
aF88.408880021816543
aF0.072187966579779606
aF79682.556899756077
aF17501.197672522652
aF0.083882742826836498
aF0.18346813626898159
aF0.19247602518302329
aF114.78958757343401
aF6.5475567314315377
aF0.27618036639439225
aF44.903185895276209
aF2.1884193891438812
aF1.0838747638622097
aF5.9640619180131971
aF1.309683656417683
aF2.0955528493338971
ag89
aF88.408880021816543
aF0.072187966579779606
aF79682.556899756077
aF17501.197672522652
aF0.083882742826836498
aF0.18346813626898159
aF0.19247602518302329
aF114.78958757343401
aF6.5475567314315377
aF0.27618036639439225
aF44.903185895276209
aF2.1884193891438812
aF1.0838747638622097
aF5.9640619180131971
aF1.309683656417683
aF2.0955528493338971
ag89
atba(lp90
g16
(g17
(dp91
g19
g20
(g21
(I0
tS'b'
tRp92
(I1
(I18
tg24
I00
S'\x00\x00\x00\x00\x00\x00\x00\x00\x01\x00\x00\x00\x00\x00\x00\x00\x02\x00\x00\x00\x00\x00\x00\x00\x03\x00\x00\x00\x00\x00\x00\x00\x04\x00\x00\x00\x00\x00\x00\x00\x05\x00\x00\x00\x00\x00\x00\x00\x06\x00\x00\x00\x00\x00\x00\x00\x07\x00\x00\x00\x00\x00\x00\x00\x08\x00\x00\x00\x00\x00\x00\x00\t\x00\x00\x00\x00\x00\x00\x00\n\x00\x00\x00\x00\x00\x00\x00\x0b\x00\x00\x00\x00\x00\x00\x00\x0c\x00\x00\x00\x00\x00\x00\x00\r\x00\x00\x00\x00\x00\x00\x00\x0e\x00\x00\x00\x00\x00\x00\x00\x0f\x00\x00\x00\x00\x00\x00\x00\x10\x00\x00\x00\x00\x00\x00\x00\x11\x00\x00\x00\x00\x00\x00\x00'
tbsg25
NstRp93
a(dp94
g57
(dp95
g59
g71
sg60
(lp96
(dp97
g63
g64
(I0
I18
I1
tRp98
sg66
g83
sasstbsbs(dp99
g2
g3
(g4
g5
NtRp100
(dp101
g8
g9
sg10
g11
sg12
g3
(g13
g5
NtRp102
((lp103
g16
(g17
(dp104
g19
g20
(g21
(I0
tS'b'
tRp105
(I1
(I14
tg24
I00
S'\x00\x00\x00\x00\x00\x00\x00\x00\x01\x00\x00\x00\x00\x00\x00\x00\x02\x00\x00\x00\x00\x00\x00\x00\x03\x00\x00\x00\x00\x00\x00\x00\x04\x00\x00\x00\x00\x00\x00\x00\x05\x00\x00\x00\x00\x00\x00\x00\x06\x00\x00\x00\x00\x00\x00\x00\x07\x00\x00\x00\x00\x00\x00\x00\x08\x00\x00\x00\x00\x00\x00\x00\t\x00\x00\x00\x00\x00\x00\x00\n\x00\x00\x00\x00\x00\x00\x00\x0b\x00\x00\x00\x00\x00\x00\x00\x0c\x00\x00\x00\x00\x00\x00\x00\r\x00\x00\x00\x00\x00\x00\x00'
tbsg25
NstRp106
ag16
(g27
(dp107
g19
g20
(g21
(I0
tS'b'
tRp108
(I1
(I13
tg30
I00
(lp109
g32
ag33
ag34
ag35
ag36
ag37
ag38
ag39
ag40
aS'C'
ag41
ag42
ag43
atbsg25
S'Parameter'
p110
stRp111
a(lp112
g20
(g21
(I0
tS'b'
tRp113
(I1
(I14
I13
tg30
I00
(lp114
F179.97567665800642
aF0.030042008589370145
aF5781.9785467276524
aF57050.186591980979
aF0.0043180020116750373
aF0.0435389525397889
aF62.739890931604492
aF1.1755378785850104
aF0.74234187100226734
aF0.42994406197547086
aF0.88567045817996615
aF0.24187277744288282
aF13.214925025943561
aF206.50429284791005
aF0.028606359906829137
aF4682.7371821955458
aF2948.2226289758109
aF0.0040474478754413679
aF0.010182878337690549
aF23.129510185124815
aF2.8530082787977511
aFnan
aF0.21307970600683612
aF0.5250414312130367
aF0.18216124997172112
aF18.807307962024478
aF34.082577051639873
aF0.0049588450016944119
aF2275.8319677404797
aF3308.5271033770696
aF0.00093845168209916174
aF7.7165184282912413e-05
aF0.072768010594870702
aF4.2141334101721828
aFnan
aF0.060246736962080494
aF0.4178225500556394
aF0.17591504891921739
aFnan
aF8.0189902216267797
aF0.0002221011194372402
aF4239.2708981971955
aF6171.7840867533378
aF0.00024274808048718732
aF0.00014230026635458914
aF0.0048583029177109438
aFnan
aFnan
aF0.045347180902516104
aF0.35347621031250931
aF0.48590022543880207
aFnan
aF6.6594014731230686
aF0.00029874656203313088
aF8704.3252442784578
aF140.92185105076351
aF0.00038141964525073568
aF4.6349510746113154e-05
aF0.0029870702167045238
aFnan
aFnan
aF0.039071071939921431
aF0.28275498424141654
aFnan
aFnan
aF2.1115311515407029
aF0.00050903264332127773
aFnan
aF151.46755665208912
aF0.00040553559983641518
aF7.2415222809041335e-05
aF0.0076969701731854911
aFnan
aFnan
aF0.026662714730377512
aF0.14370946764638104
aFnan
aFnan
aFnan
aF0.0004936272260882002
aFnan
aF23.97402639494976
aF0.00044080745814922828
aF8.1260708175878715e-05
aF0.0037015292835462787
aFnan
aFnan
aF0.032295457679542672
aF0.048058497540680811
aFnan
aFnan
aFnan
aF0.00010676111540916522
aFnan
aF29.990389462152962
aF0.00011749120465781582
aF6.965106666828591e-05
aF0.0040019409862850353
aFnan
aFnan
aFnan
aF0.059276931071398309
aFnan
aFnan
aFnan
aF0.00033250364215192674
aFnan
aF68.151965207915055
aF4.3738201469412097e-05
aF3.9736164917814065e-05
aF0.0026183247252618003
aFnan
aFnan
aFnan
aFnan
aFnan
aFnan
aFnan
aF0.001496075768447569
aFnan
aF80.486530662339646
aFnan
aF6.3163673322874647e-05
aF0.0057001473393825108
aFnan
aFnan
aFnan
aFnan
aFnan
aFnan
aFnan
aFnan
aFnan
aF110.76297399902251
aFnan
aF7.2913638940852454e-05
aF0.0030344768100576403
aFnan
aFnan
aFnan
aFnan
aFnan
aFnan
aFnan
aFnan
aFnan
aFnan
aFnan
aF4.7282705312290396e-05
aF0.0084654687739202927
aFnan
aFnan
aFnan
aFnan
aFnan
aFnan
aFnan
aFnan
aFnan
aFnan
aFnan
aF6.6976754527103832e-05
aFnan
aFnan
aFnan
aFnan
aFnan
aFnan
aFnan
aFnan
aFnan
aFnan
aFnan
aFnan
aFnan
aFnan
aFnan
aFnan
aFnan
aFnan
aFnan
aFnan
atba(lp115
g16
(g17
(dp116
g19
g20
(g21
(I0
tS'b'
tRp117
(I1
(I14
tg24
I00
S'\x00\x00\x00\x00\x00\x00\x00\x00\x01\x00\x00\x00\x00\x00\x00\x00\x02\x00\x00\x00\x00\x00\x00\x00\x03\x00\x00\x00\x00\x00\x00\x00\x04\x00\x00\x00\x00\x00\x00\x00\x05\x00\x00\x00\x00\x00\x00\x00\x06\x00\x00\x00\x00\x00\x00\x00\x07\x00\x00\x00\x00\x00\x00\x00\x08\x00\x00\x00\x00\x00\x00\x00\t\x00\x00\x00\x00\x00\x00\x00\n\x00\x00\x00\x00\x00\x00\x00\x0b\x00\x00\x00\x00\x00\x00\x00\x0c\x00\x00\x00\x00\x00\x00\x00\r\x00\x00\x00\x00\x00\x00\x00'
tbsg25
NstRp118
a(dp119
g57
(dp120
g59
g103
sg60
(lp121
(dp122
g63
g64
(I0
I14
I1
tRp123
sg66
g113
sasstbsbsg67
g3
(g4
g5
NtRp124
(dp125
g8
g9
sg10
g11
sg12
g3
(g13
g5
NtRp126
((lp127
g16
(g17
(dp128
g19
g20
(g21
(I0
tS'b'
tRp129
(I1
(I17
tg24
I00
S'\x00\x00\x00\x00\x00\x00\x00\x00\x01\x00\x00\x00\x00\x00\x00\x00\x02\x00\x00\x00\x00\x00\x00\x00\x03\x00\x00\x00\x00\x00\x00\x00\x04\x00\x00\x00\x00\x00\x00\x00\x05\x00\x00\x00\x00\x00\x00\x00\x06\x00\x00\x00\x00\x00\x00\x00\x07\x00\x00\x00\x00\x00\x00\x00\x08\x00\x00\x00\x00\x00\x00\x00\t\x00\x00\x00\x00\x00\x00\x00\n\x00\x00\x00\x00\x00\x00\x00\x0b\x00\x00\x00\x00\x00\x00\x00\x0c\x00\x00\x00\x00\x00\x00\x00\r\x00\x00\x00\x00\x00\x00\x00\x0e\x00\x00\x00\x00\x00\x00\x00\x0f\x00\x00\x00\x00\x00\x00\x00\x10\x00\x00\x00\x00\x00\x00\x00'
tbsg25
NstRp130
ag16
(g27
(dp131
g19
g20
(g21
(I0
tS'b'
tRp132
(I1
(I16
tg30
I00
(lp133
g32
ag33
ag34
ag35
ag78
ag36
ag37
ag38
ag39
ag79
ag80
ag40
aS'C'
ag41
ag42
ag43
atbsg25
g110
stRp134
a(lp135
g20
(g21
(I0
tS'b'
tRp136
(I1
(I17
I16
tg30
I00
(lp137
F55.519744943551927
aF0.079753075483872532
aF64002.569414664409
aF21398.72582808038
aF0.16106585026833742
aF0.15314549116014786
aF0.019617920062136252
aF34.740735379524835
aF3.4619838431300334
aF0.25622272834249449
aF58.437135938066149
aF0.42585485954817104
aF0.61140928992190036
aF6.8154511921231702
aF0.76628396014053357
aF6.1702583020781656
aF38.30768247328507
aF0.15419017306064053
aF38187.832208917127
aF7061.6572039136518
aF0.11054684880876819
aF0.081398900959928189
aF0.0029586314924532342
aF28.062273044172684
aF3.6176822211735509
aF0.1556876797814345
aF58.136746566973045
aFnan
aF0.63544058277777182
aF6.7962478774709609
aF1.6602737474748499
aF3.1444667784647944
aF3.2848144111623583
aF0.021093103381581935
aF59866.610853327787
aFnan
aF0.066358580984112042
aF0.0708185994412171
aF0.0033917651755360212
aF52.603416848596964
aF2.7512549963115944
aF0.094208118446751254
aF24.778231491746993
aFnan
aF0.10789353115065614
aF9.9089205213741849
aF0.15077253476092745
aF0.80610976101676091
aF0.82818497647554068
aF0.010719557004292612
aF50661.928162278258
aFnan
aF0.042734523873384778
aF0.033389098653286542
aF0.00099526691009410584
aF6.8887677477583793
aF1.0726780203696187
aF0.059482170391264688
aF18.949591274515456
aFnan
aF0.081541718467219582
aFnan
aF0.17501215854676122
aF0.74185763193347398
aF0.77366873524707103
aF0.0035420372047953175
aFnan
aFnan
aF0.031989026229665846
aF0.00086488421062808074
aF0.0006051378438772792
aF3.3372806326192119
aF0.63944751095325714
aF0.036541257495583124
aF18.85076077673574
aFnan
aF0.0088034788720676715
aFnan
aF0.051162218808738391
aF0.78981877730657679
aF0.32673681533145782
aF0.00081051331221870804
aFnan
aFnan
aF0.0066878501496092368
aF8.3051955339197292e-05
aF4.7921818866702992e-05
aF3.9467014941959349
aF0.014332520760499179
aF0.032665824361560625
aF7.2299359356489532
aFnan
aF0.0069971180568395575
aFnan
aFnan
aF0.0196830973429023
aF1.1112791765187353
aF0.00072918459868853702
aFnan
aFnan
aF0.0045199657929330395
aF0.00013549887163094576
aF1.8152839638851948e-05
aFnan
aF0.035639754135727841
aF0.082655449573932671
aF7.3677248003064761
aFnan
aF0.0027658291821883729
aFnan
aFnan
aF0.0042107030819611424
aF2.4303310995902905
aF0.00025084332522232189
aFnan
aFnan
aF0.0067968375973999351
aF0.00035498779575038331
aF5.3603556171732958e-05
aFnan
aF0.032707185463799249
aFnan
aF0.054382149990260586
aFnan
aF0.0033127552049725395
aFnan
aFnan
aF0.00076306207442922158
aF1.7643771924104499
aFnan
aFnan
aFnan
aF0.0061048203038606974
aF3.637390478306024e-05
aF9.0680256281838734e-05
aFnan
aF0.072325541005852756
aFnan
aF0.13411926966711007
aFnan
aF0.0010282075882344088
aFnan
aFnan
aF0.0015245646482364705
aF4.88622108357157
aFnan
aFnan
aFnan
aF0.0092028829412784674
aF3.9023318003650331e-06
aF0.00010090520685801518
aFnan
aF0.18148693363501422
aFnan
aFnan
aFnan
aF0.00040677968484992277
aFnan
aFnan
aF0.0020299083545509689
aF0.30991776236169244
aFnan
aFnan
aFnan
aF0.0017066647059911233
aFnan
aF8.1061015046179907e-05
aFnan
aF0.24813507327313999
aFnan
aFnan
aFnan
aF0.00015466035369460229
aFnan
aFnan
aF0.00068114991519596657
aF0.41868314139111362
aFnan
aFnan
aFnan
aF0.0041598153661048798
aFnan
aF1.1155189724332271e-05
aFnan
aFnan
aFnan
aFnan
aFnan
aF0.00064632569012790242
aFnan
aFnan
aF0.00078873653642208552
aF0.24436421664137242
aFnan
aFnan
aFnan
aF0.00096647270089755821
aFnan
aF4.7060728408654384e-06
aFnan
aFnan
aFnan
aFnan
aFnan
aFnan
aFnan
aFnan
aF0.0010650385577468668
aF0.12866408463582957
aFnan
aFnan
aFnan
aF0.0012301788310451478
aFnan
aF1.5081431899377495e-05
aFnan
aFnan
aFnan
aFnan
aFnan
aFnan
aFnan
aFnan
aFnan
aF0.15386269098161165
aFnan
aFnan
aFnan
aF0.00068646743747913241
aFnan
aFnan
aFnan
aFnan
aFnan
aFnan
aFnan
aFnan
aFnan
aFnan
aFnan
aFnan
aFnan
aFnan
aFnan
aF0.00026157687832895071
aFnan
aFnan
aFnan
aFnan
aFnan
aFnan
aFnan
aFnan
aFnan
aFnan
aFnan
aFnan
aFnan
aFnan
aFnan
aFnan
aFnan
aFnan
aFnan
aFnan
aFnan
aFnan
aFnan
aFnan
aFnan
aFnan
aFnan
atba(lp138
g16
(g17
(dp139
g19
g20
(g21
(I0
tS'b'
tRp140
(I1
(I17
tg24
I00
S'\x00\x00\x00\x00\x00\x00\x00\x00\x01\x00\x00\x00\x00\x00\x00\x00\x02\x00\x00\x00\x00\x00\x00\x00\x03\x00\x00\x00\x00\x00\x00\x00\x04\x00\x00\x00\x00\x00\x00\x00\x05\x00\x00\x00\x00\x00\x00\x00\x06\x00\x00\x00\x00\x00\x00\x00\x07\x00\x00\x00\x00\x00\x00\x00\x08\x00\x00\x00\x00\x00\x00\x00\t\x00\x00\x00\x00\x00\x00\x00\n\x00\x00\x00\x00\x00\x00\x00\x0b\x00\x00\x00\x00\x00\x00\x00\x0c\x00\x00\x00\x00\x00\x00\x00\r\x00\x00\x00\x00\x00\x00\x00\x0e\x00\x00\x00\x00\x00\x00\x00\x0f\x00\x00\x00\x00\x00\x00\x00\x10\x00\x00\x00\x00\x00\x00\x00'
tbsg25
NstRp141
a(dp142
g57
(dp143
g59
g127
sg60
(lp144
(dp145
g63
g64
(I0
I17
I1
tRp146
sg66
g136
sasstbsbstp147
.