((dp1
S'old_model'
p2
ccopy_reg
_reconstructor
p3
(cpandas.core.frame
DataFrame
p4
c__builtin__
object
p5
NtRp6
(dp7
S'_metadata'
p8
(lp9
sS'_typ'
p10
S'dataframe'
p11
sS'_data'
p12
g3
(cpandas.core.internals
BlockManager
p13
g5
NtRp14
((lp15
cpandas.indexes.base
_new_Index
p16
(cpandas.indexes.numeric
Int64Index
p17
(dp18
S'data'
p19
cnumpy.core.multiarray
_reconstruct
p20
(cnumpy
ndarray
p21
(I0
tS'b'
tRp22
(I1
(I15
tcnumpy
dtype
p23
(S'i8'
I0
I1
tRp24
(I3
S'<'
NNNI-1
I-1
I0
tbI00
S'\x00\x00\x00\x00\x00\x00\x00\x00\x01\x00\x00\x00\x00\x00\x00\x00\x02\x00\x00\x00\x00\x00\x00\x00\x03\x00\x00\x00\x00\x00\x00\x00\x04\x00\x00\x00\x00\x00\x00\x00\x05\x00\x00\x00\x00\x00\x00\x00\x06\x00\x00\x00\x00\x00\x00\x00\x07\x00\x00\x00\x00\x00\x00\x00\x08\x00\x00\x00\x00\x00\x00\x00\t\x00\x00\x00\x00\x00\x00\x00\n\x00\x00\x00\x00\x00\x00\x00\x0b\x00\x00\x00\x00\x00\x00\x00\x0c\x00\x00\x00\x00\x00\x00\x00\r\x00\x00\x00\x00\x00\x00\x00\x0e\x00\x00\x00\x00\x00\x00\x00'
tbsS'name'
p25
NstRp26
ag16
(cpandas.indexes.base
Index
p27
(dp28
g19
g20
(g21
(I0
tS'b'
tRp29
(I1
(I14
tg23
(S'O8'
I0
I1
tRp30
(I3
S'|'
NNNI-1
I-1
I63
tbI00
(lp31
S'nitrogen_source'
p32
aS'nitrogen_ratio'
p33
aS'carbon_source_from_5e4'
p34
aS'oxygen_source'
p35
aS'fe_precipitation'
p36
aS'carbon_precip'
p37
aS'diffusion_constant'
p38
aS'ma_op_fe_n_rate_const'
p39
aS'primary_ox_rate_const'
p40
aS'C'
aS'N-'
p41
aS'S-'
p42
aS'CH4'
p43
aS'score'
p44
atbsg25
NstRp45
a(lp46
g20
(g21
(I0
tS'b'
tRp47
(I1
(I15
I14
tg30
I00
(lp48
F0
aF0.050000000000000003
aF55000
aF6600
aF0.20000000000000001
aF0.20000000000000001
aF50
aF1
aF1.5
aF1
aF1
aF1
aF1
acnumpy.core.multiarray
scalar
p49
(g23
(S'f8'
I0
I1
tRp50
(I3
S'<'
NNNI-1
I-1
I0
tbS'\xaa\xe0\xe5\x0f)\x82\xd2?'
tRp51
aF103.39376559624878
aF0.051486910945261172
aF76127.5690677479
aF33823.639317921239
aF0.23705195175537785
aF0.20010927650375324
aF131.70142571524437
aF2.745128141352327
aF2.3457307473496427
aF2.5385806406679774
aF4.1352070935777947
aF0.79999596515360027
aF5.7631422993942669
ag49
(g50
S'\x8d\xe4\xcfo*\xf9\xde?'
tRp52
aF138.55863451559546
aF0.052034634380180522
aF92735.568196342763
aF11708.640198499874
aF0.30539867148149152
aF0.2001077767322347
aF194.07295848630622
aF2.914551130077518
aF2.4840783412210845
aF2.9537168440461001
aF4.4718965123517975
aF0.82731049629193842
aF7.156465687459808
ag49
(g50
S'\x87\x85+\x95\xfa\xba\xe1?'
tRp53
aF154.15888621394922
aF0.052541124897370811
aF92735.568196342763
aF11708.640198499874
aF0.31223341669336613
aF0.20010842219102298
aF192.78572109743632
aF3.0899673086173314
aF2.4812707493075292
aF2.9548377886501362
aF4.8021000967144545
aF0.83588957895441796
aF7.1025603486144551
ag49
(g50
S'\x87\x85+\x95\xfa\xba\xe1?'
tRp54
aF180.00394162923158
aF0.052798875960631798
aF92735.568196342763
aF11708.640198499874
aF0.31247779368041667
aF0.20010920371394092
aF192.76859355576585
aF3.096462123276067
aF2.4811354530570968
aF2.955151510918149
aF4.8005597391095298
aF0.85339552611256109
aF7.1025603486144551
ag49
(g50
S'\x87\x85+\x95\xfa\xba\xe1?'
tRp55
aF180.00394162923158
aF0.052802482376287214
aF92735.568196342763
aF11708.640198499874
aF0.3125711053804362
aF0.20011074328459361
aF192.77847016225974
aF3.0964878128995754
aF2.4811754460206648
aF2.9552844737097987
aF4.8006629419985174
aF0.85280794862157283
aF7.1025603486144551
ag49
(g50
S'\x87\x85+\x95\xfa\xba\xe1?'
tRp56
aF180.00394162923158
aF0.052802960185611827
aF92735.568196342763
aF11708.640198499874
aF0.31256975720993468
aF0.20011140702346189
aF192.77914380060196
aF3.0964904444730115
aF2.4812352711931207
aF2.9552836559708013
aF4.800686457972045
aF0.85280794862157283
aF7.1025603486144551
ag49
(g50
S'\x87\x85+\x95\xfa\xba\xe1?'
tRp57
aF180.00394162923158
aF0.052802962104932682
aF92735.568196342763
aF11708.640198499874
aF0.31256987671574399
aF0.20011195115579072
aF192.77918369146798
aF3.0964942428486344
aF2.4812352711931207
aF2.9552838861139947
aF4.8006872949996406
aF0.85280794862157283
aF7.1025603486144551
ag49
(g50
S'\x87\x85+\x95\xfa\xba\xe1?'
tRp58
aF180.00394162923158
aF0.052802961881708577
aF92735.568196342763
aF11708.640198499874
aF0.31256990340797841
aF0.20011195115579072
aF192.77922805354285
aF3.0964942380877787
aF2.4812352711931207
aF2.9552838882926826
aF4.8006867401084428
aF0.85280794862157283
aF7.1025603486144551
ag49
(g50
S'\x87\x85+\x95\xfa\xba\xe1?'
tRp59
aF180.00394162923158
aF0.052802961929888127
aF92735.568196342763
aF11708.640198499874
aF0.31256990500206905
aF0.20011195115579072
aF192.7792247121923
aF3.0964942382183072
aF2.4812352711931207
aF2.9552838890291548
aF4.8006867401084428
aF0.85280794862157283
aF7.1025603486144551
ag49
(g50
S'\x87\x85+\x95\xfa\xba\xe1?'
tRp60
aF180.00394162923158
aF0.05280296192780734
aF92735.568196342763
aF11708.640198499874
aF0.31256990496706438
aF0.20011195115579072
aF192.77922436782998
aF3.0964942382183072
aF2.4812352711931207
aF2.9552838889584283
aF4.8006867401084428
aF0.85280794862157283
aF7.1025603486144551
ag49
(g50
S'\x87\x85+\x95\xfa\xba\xe1?'
tRp61
aF180.00394162923158
aF0.052802961927912791
aF92735.568196342763
aF11708.640198499874
aF0.3125699049682798
aF0.20011195115579072
aF192.77922437660553
aF3.0964942382183072
aF2.4812352711931207
aF2.9552838889584283
aF4.8006867401084428
aF0.85280794862157283
aF7.1025603486144551
ag49
(g50
S'\x87\x85+\x95\xfa\xba\xe1?'
tRp62
aF180.00394162923158
aF0.052802961927907052
aF92735.568196342763
aF11708.640198499874
aF0.3125699049682798
aF0.20011195115579072
aF192.77922437643002
aF3.0964942382183072
aF2.4812352711931207
aF2.9552838889584283
aF4.8006867401084428
aF0.85280794862157283
aF7.1025603486144551
ag49
(g50
S'\x87\x85+\x95\xfa\xba\xe1?'
tRp63
aF180.00394162923158
aF0.052802961927907052
aF92735.568196342763
aF11708.640198499874
aF0.3125699049682798
aF0.20011195115579072
aF192.77922437644264
aF3.0964942382183072
aF2.4812352711931207
aF2.9552838889584283
aF4.8006867401084428
aF0.85280794862157283
aF7.1025603486144551
ag49
(g50
S'\x87\x85+\x95\xfa\xba\xe1?'
tRp64
aF180.00394162923158
aF0.052802961927907052
aF92735.568196342763
aF11708.640198499874
aF0.3125699049682798
aF0.20011195115579072
aF192.77922437644264
aF3.0964942382183072
aF2.4812352711931207
aF2.9552838889584283
aF4.8006867401084428
aF0.85280794862157283
aF7.1025603486144551
ag49
(g50
S'\x87\x85+\x95\xfa\xba\xe1?'
tRp65
atba(lp66
g16
(g17
(dp67
g19
g20
(g21
(I0
tS'b'
tRp68
(I1
(I15
tg24
I00
S'\x00\x00\x00\x00\x00\x00\x00\x00\x01\x00\x00\x00\x00\x00\x00\x00\x02\x00\x00\x00\x00\x00\x00\x00\x03\x00\x00\x00\x00\x00\x00\x00\x04\x00\x00\x00\x00\x00\x00\x00\x05\x00\x00\x00\x00\x00\x00\x00\x06\x00\x00\x00\x00\x00\x00\x00\x07\x00\x00\x00\x00\x00\x00\x00\x08\x00\x00\x00\x00\x00\x00\x00\t\x00\x00\x00\x00\x00\x00\x00\n\x00\x00\x00\x00\x00\x00\x00\x0b\x00\x00\x00\x00\x00\x00\x00\x0c\x00\x00\x00\x00\x00\x00\x00\r\x00\x00\x00\x00\x00\x00\x00\x0e\x00\x00\x00\x00\x00\x00\x00'
tbsg25
NstRp69
a(dp70
S'0.14.1'
p71
(dp72
S'axes'
p73
g15
sS'blocks'
p74
(lp75
(dp76
S'mgr_locs'
p77
c__builtin__
slice
p78
(I0
I15
I1
tRp79
sS'values'
p80
g47
sasstbsbsS'new_model'
p81
g3
(g4
g5
NtRp82
(dp83
g8
g9
sg10
g11
sg12
g3
(g13
g5
NtRp84
((lp85
g16
(g17
(dp86
g19
g20
(g21
(I0
tS'b'
tRp87
(I1
(I18
tg24
I00
S'\x00\x00\x00\x00\x00\x00\x00\x00\x01\x00\x00\x00\x00\x00\x00\x00\x02\x00\x00\x00\x00\x00\x00\x00\x03\x00\x00\x00\x00\x00\x00\x00\x04\x00\x00\x00\x00\x00\x00\x00\x05\x00\x00\x00\x00\x00\x00\x00\x06\x00\x00\x00\x00\x00\x00\x00\x07\x00\x00\x00\x00\x00\x00\x00\x08\x00\x00\x00\x00\x00\x00\x00\t\x00\x00\x00\x00\x00\x00\x00\n\x00\x00\x00\x00\x00\x00\x00\x0b\x00\x00\x00\x00\x00\x00\x00\x0c\x00\x00\x00\x00\x00\x00\x00\r\x00\x00\x00\x00\x00\x00\x00\x0e\x00\x00\x00\x00\x00\x00\x00\x0f\x00\x00\x00\x00\x00\x00\x00\x10\x00\x00\x00\x00\x00\x00\x00\x11\x00\x00\x00\x00\x00\x00\x00'
tbsg25
NstRp88
ag16
(g27
(dp89
g19
g20
(g21
(I0
tS'b'
tRp90
(I1
(I17
tg30
I00
(lp91
S'nitrogen_source'
p92
aS'nitrogen_ratio'
p93
aS'carbon_source_from_5e4'
p94
aS'oxygen_source'
p95
aS'sminus_precipitation'
p96
aS'fe_precipitation'
p97
aS'carbon_precip'
p98
aS'diffusion_constant'
p99
aS'ma_op_fe_n_rate_const'
p100
aS'ma_op_s_n_rate_const'
p101
aS'ma_op_ch4_n_rate_const'
p102
aS'primary_ox_rate_const'
p103
aS'C'
aS'N-'
p104
aS'S-'
p105
aS'CH4'
p106
ag44
atbsg25
NstRp107
a(lp108
g20
(g21
(I0
tS'b'
tRp109
(I1
(I18
I17
tg30
I00
(lp110
F96.5
aF0.050000000000000003
aF55000
aF6600
aF0.20000000000000001
aF0.20000000000000001
aF0.20000000000000001
aF50
aF1
aF0.25
aF50
aF1.5
aF1
aF1
aF1
aF1
ag49
(g50
S'6\xae\xeak\xa6\xc2\xcb?'
tRp111
aF141.22986576112163
aF0.058260735163554511
aF58539.59718489385
aF33722.517340030572
aF0.2681932908685789
aF0.32129990394499558
aF0.24103738124007124
aF130.08075538807191
aF1.8273013972741925
aF0.31845950941991519
aF49.692295716225573
aF1.7021155974626296
aF1.7760321839057578
aF7.8795156781601978
aF1.0808935083496094
aF7.1668416913186865
ag49
(g50
S'\x16\xd3-V\x1dq\xe1?'
tRp112
aF150.51603043689397
aF0.061809559761291606
aF59331.479154500201
aF33722.517340030572
aF0.29408304758151377
aF0.50917557389788115
aF0.27872482666531656
aF218.00658038218276
aF3.0085451052899659
aF0.32654303289936892
aF49.911548632798386
aF1.6977477038010551
aF1.8113701488784737
aF9.8526927380072618
aF1.1814410787226457
aF8.6193610095634821
ag49
(g50
S'\x16\xd3-V\x1dq\xe1?'
tRp113
aF154.08465264960745
aF0.066267466368436209
aF59500.957892661645
aF33722.517340030572
aF0.33226523418172615
aF0.65501141460010803
aF0.27910001049270905
aF224.9353352788512
aF4.5442097041098686
aF0.34371365042136648
aF49.955196988684577
aF1.6981914394172397
aF1.8218078594708829
aF12.821845397899139
aF1.2800731529295459
aF8.6193610095634821
ag49
(g50
S'\x16\xd3-V\x1dq\xe1?'
tRp114
aF154.81289944016368
aF0.066583607157377073
aF59575.242031902882
aF33722.517340030572
aF0.33350281707346757
aF0.69981302403304402
aF0.27927132426620249
aF229.47061640591991
aF4.6498076552365104
aF0.36207164293630556
aF49.97865394013666
aF1.6986896054667808
aF1.8232433174503291
aF12.821845397899139
aF1.4160137566486284
aF8.6193610095634821
ag49
(g50
S'\x16\xd3-V\x1dq\xe1?'
tRp115
aF154.8131569311885
aF0.066837963411381429
aF59614.534081736754
aF33722.517340030572
aF0.33569386124627165
aF0.71817073249295904
aF0.27940577497125951
aF242.2256790388557
aF4.6701328971577336
aF0.39428472068211678
aF49.999633888646855
aF1.699019044190121
aF1.8241751141732196
aF12.821845397899139
aF1.4160137566486284
aF8.6193610095634821
ag49
(g50
S'\x16\xd3-V\x1dq\xe1?'
tRp116
aF154.81334509813013
aF0.067120590598667373
aF59625.42942735133
aF33722.517340030572
aF0.33570859422093646
aF0.73561401376099977
aF0.27941485919880327
aF242.2256790388557
aF4.6793639353940151
aF0.49472979502666015
aF50.000695478331821
aF1.6991367240982462
aF1.8252049096996101
aF12.821845397899139
aF1.4160137566486284
aF8.6193610095634821
ag49
(g50
S'\x16\xd3-V\x1dq\xe1?'
tRp117
aF154.81342124873677
aF0.067614832712725823
aF59629.504537847155
aF33722.517340030572
aF0.33570827336181863
aF0.74274308530037192
aF0.27941554619477865
aF242.2256790388557
aF4.6806506378219126
aF0.49472979502666015
aF50.001228227013314
aF1.6992397387625067
aF1.8271075281265285
aF12.821845397899139
aF1.4160137566486284
aF8.6193610095634821
ag49
(g50
S'\x16\xd3-V\x1dq\xe1?'
tRp118
aF154.81342498189292
aF0.067614832712725823
aF59634.450258457699
aF33722.517340030572
aF0.33570828109333878
aF0.74870658314879479
aF0.27941615168705025
aF242.2256790388557
aF4.6807440321195815
aF0.49472979502666015
aF50.001519450835389
aF1.6994411515996017
aF1.829541641368668
aF12.821845397899139
aF1.4160137566486284
aF8.6193610095634821
ag49
(g50
S'\x16\xd3-V\x1dq\xe1?'
tRp119
aF154.81342519500978
aF0.067614832712725823
aF59636.201259576112
aF33722.517340030572
aF0.33570828349794785
aF0.75091131687985591
aF0.2794163390493723
aF242.2256790388557
aF4.6808587708415468
aF0.49472979502666015
aF50.001549806539821
aF1.6995239583074948
aF1.829541641368668
aF12.821845397899139
aF1.4160137566486284
aF8.6193610095634821
ag49
(g50
S'\x16\xd3-V\x1dq\xe1?'
tRp120
aF154.81342535973113
aF0.067614832712725823
aF59637.454542867992
aF33722.517340030572
aF0.33570828395980989
aF0.75091131687985591
aF0.2794163561327242
aF242.2256790388557
aF4.6808668124678121
aF0.49472979502666015
aF50.001589925671468
aF1.6996817272317672
aF1.829541641368668
aF12.821845397899139
aF1.4160137566486284
aF8.6193610095634821
ag49
(g50
S'\x16\xd3-V\x1dq\xe1?'
tRp121
aF154.81342567035387
aF0.067614832712725823
aF59638.671912213671
aF33722.517340030572
aF0.33570828449227441
aF0.75091131687985591
aF0.27941636779073054
aF242.2256790388557
aF4.6808739418264276
aF0.49472979502666015
aF50.001594925364543
aF1.6996817272317672
aF1.829541641368668
aF12.821845397899139
aF1.4160137566486284
aF8.6193610095634821
ag49
(g50
S'\x16\xd3-V\x1dq\xe1?'
tRp122
aF154.81342566285997
aF0.067614832712725823
aF59638.671912213671
aF33722.517340030572
aF0.33570828470137853
aF0.75091131687985591
aF0.27941636823387395
aF242.2256790388557
aF4.6808779847693094
aF0.49472979502666015
aF50.001597324428332
aF1.6996817272317672
aF1.829541641368668
aF12.821845397899139
aF1.4160137566486284
aF8.6193610095634821
ag49
(g50
S'\x16\xd3-V\x1dq\xe1?'
tRp123
aF154.81342566285386
aF0.067614832712725823
aF59638.671912213671
aF33722.517340030572
aF0.33570828475741965
aF0.75091131687985591
aF0.27941636821528482
aF242.2256790388557
aF4.6808779847693094
aF0.49472979502666015
aF50.001597245657038
aF1.6996817272317672
aF1.829541641368668
aF12.821845397899139
aF1.4160137566486284
aF8.6193610095634821
ag49
(g50
S'\x16\xd3-V\x1dq\xe1?'
tRp124
aF154.81342566285386
aF0.067614832712725823
aF59638.671912213671
aF33722.517340030572
aF0.33570828476804615
aF0.75091131687985591
aF0.27941636821807875
aF242.2256790388557
aF4.6808779847693094
aF0.49472979502666015
aF50.001597242451545
aF1.6996817272317672
aF1.829541641368668
aF12.821845397899139
aF1.4160137566486284
aF8.6193610095634821
ag49
(g50
S'\x16\xd3-V\x1dq\xe1?'
tRp125
aF154.81342566285386
aF0.067614832712725823
aF59638.671912213671
aF33722.517340030572
aF0.3357082847606529
aF0.75091131687985591
aF0.27941636821816873
aF242.2256790388557
aF4.6808779847693094
aF0.49472979502666015
aF50.001597242617351
aF1.6996817272317672
aF1.829541641368668
aF12.821845397899139
aF1.4160137566486284
aF8.6193610095634821
ag49
(g50
S'\x16\xd3-V\x1dq\xe1?'
tRp126
aF154.81342566285386
aF0.067614832712725823
aF59638.671912213671
aF33722.517340030572
aF0.3357082847606529
aF0.75091131687985591
aF0.27941636821813987
aF242.2256790388557
aF4.6808779847693094
aF0.49472979502666015
aF50.001597242644202
aF1.6996817272317672
aF1.829541641368668
aF12.821845397899139
aF1.4160137566486284
aF8.6193610095634821
ag49
(g50
S'\x16\xd3-V\x1dq\xe1?'
tRp127
aF154.81342566285386
aF0.067614832712725823
aF59638.671912213671
aF33722.517340030572
aF0.3357082847606529
aF0.75091131687985591
aF0.27941636821813987
aF242.2256790388557
aF4.6808779847693094
aF0.49472979502666015
aF50.00159724263569
aF1.6996817272317672
aF1.829541641368668
aF12.821845397899139
aF1.4160137566486284
aF8.6193610095634821
ag49
(g50
S'\x16\xd3-V\x1dq\xe1?'
tRp128
atba(lp129
g16
(g17
(dp130
g19
g20
(g21
(I0
tS'b'
tRp131
(I1
(I18
tg24
I00
S'\x00\x00\x00\x00\x00\x00\x00\x00\x01\x00\x00\x00\x00\x00\x00\x00\x02\x00\x00\x00\x00\x00\x00\x00\x03\x00\x00\x00\x00\x00\x00\x00\x04\x00\x00\x00\x00\x00\x00\x00\x05\x00\x00\x00\x00\x00\x00\x00\x06\x00\x00\x00\x00\x00\x00\x00\x07\x00\x00\x00\x00\x00\x00\x00\x08\x00\x00\x00\x00\x00\x00\x00\t\x00\x00\x00\x00\x00\x00\x00\n\x00\x00\x00\x00\x00\x00\x00\x0b\x00\x00\x00\x00\x00\x00\x00\x0c\x00\x00\x00\x00\x00\x00\x00\r\x00\x00\x00\x00\x00\x00\x00\x0e\x00\x00\x00\x00\x00\x00\x00\x0f\x00\x00\x00\x00\x00\x00\x00\x10\x00\x00\x00\x00\x00\x00\x00\x11\x00\x00\x00\x00\x00\x00\x00'
tbsg25
NstRp132
a(dp133
g71
(dp134
g73
g85
sg74
(lp135
(dp136
g77
g78
(I0
I18
I1
tRp137
sg80
g109
sasstbsbs(dp138
g2
g3
(g4
g5
NtRp139
(dp140
g8
g9
sg10
g11
sg12
g3
(g13
g5
NtRp141
((lp142
g16
(g17
(dp143
g19
g20
(g21
(I0
tS'b'
tRp144
(I1
(I15
tg24
I00
S'\x00\x00\x00\x00\x00\x00\x00\x00\x01\x00\x00\x00\x00\x00\x00\x00\x02\x00\x00\x00\x00\x00\x00\x00\x03\x00\x00\x00\x00\x00\x00\x00\x04\x00\x00\x00\x00\x00\x00\x00\x05\x00\x00\x00\x00\x00\x00\x00\x06\x00\x00\x00\x00\x00\x00\x00\x07\x00\x00\x00\x00\x00\x00\x00\x08\x00\x00\x00\x00\x00\x00\x00\t\x00\x00\x00\x00\x00\x00\x00\n\x00\x00\x00\x00\x00\x00\x00\x0b\x00\x00\x00\x00\x00\x00\x00\x0c\x00\x00\x00\x00\x00\x00\x00\r\x00\x00\x00\x00\x00\x00\x00\x0e\x00\x00\x00\x00\x00\x00\x00'
tbsg25
NstRp145
ag16
(g27
(dp146
g19
g20
(g21
(I0
tS'b'
tRp147
(I1
(I13
tg23
(S'O8'
I0
I1
tRp148
(I3
S'|'
NNNI-1
I-1
I63
tbI00
(lp149
g32
ag33
ag34
ag35
ag36
ag37
ag38
ag39
ag40
aS'C'
ag41
ag42
ag43
atbsg25
S'Parameter'
p150
stRp151
a(lp152
g20
(g21
(I0
tS'b'
tRp153
(I1
(I14
I13
tg30
I00
(lp154
Fnan
aFnan
aFnan
aFnan
aFnan
aFnan
aFnan
aFnan
aFnan
aFnan
aFnan
aFnan
aFnan
aF103.39376559624878
aF0.001486910945261169
aF21127.5690677479
aF27223.639317921239
aF0.037051951755377843
aF0.00010927650375322506
aF81.701425715244369
aF1.745128141352327
aF0.84573074734964271
aF1.5385806406679774
aF3.1352070935777947
aF0.20000403484639973
aF4.7631422993942669
aF35.164868919346674
aF0.00054772343491935049
aF16607.999128594864
aFnan
aF0.068346719726113669
aF1.4997715185316451e-06
aF62.371532771061851
aF0.16942298872519101
aF0.1383475938714418
aF0.41513620337812274
aF0.33668941877400282
aF0.027314531138338149
aF1.3933233880655411
aF15.600251698353759
aF0.00050649051719028892
aFnan
aFnan
aF0.0068347452118746044
aF6.4545878827870773e-07
aF1.2872373888698974
aF0.17541617853981339
aF0.0028075919135552851
aF0.0011209446040361115
aF0.33020358436265695
aF0.0085790826624795313
aF0.053905338845352979
aF25.84505541528236
aF0.00025775106326098723
aFnan
aFnan
aF0.000244376987050543
aF7.8152291793642803e-07
aF0.017127541670475921
aF0.0064948146587355815
aF0.00013529625043240401
aF0.00031372226801273939
aF0.0015403576049246581
aF0.017505947158143131
aFnan
aFnan
aF3.6064156554160842e-06
aFnan
aFnan
aF9.3311700019527155e-05
aF1.5395706526866171e-06
aF0.0098766064938899945
aF2.5689623508462489e-05
aF3.9992963567936357e-05
aF0.00013296279164975999
aF0.00010320288898757468
aF0.00058757749098825585
aFnan
aFnan
aF4.7780932461299885e-07
aFnan
aFnan
aF1.3481705015139234e-06
aF6.6373886828396955e-07
aF0.00067363834222078367
aF2.6315734360515819e-06
aF5.9825172455951758e-05
aF8.1773899740511524e-07
aF2.3515973527565848e-05
aFnan
aFnan
aFnan
aF1.9193208550261076e-09
aFnan
aFnan
aF1.1950580930397692e-07
aF5.4413232883354645e-07
aF3.9890866020186877e-05
aF3.7983756229209575e-06
aFnan
aF2.3014319339154099e-07
aF8.3702759567927387e-07
aFnan
aFnan
aFnan
aF2.2322410586639307e-10
aFnan
aFnan
aF2.6692234422753813e-08
aFnan
aF4.4362074874015889e-05
aF4.7608557096623372e-09
aFnan
aF2.1786878967589018e-09
aF5.5489119787921481e-07
aFnan
aFnan
aFnan
aF4.8179550626858969e-11
aFnan
aFnan
aF1.5940906372691188e-09
aFnan
aF3.3413505491353135e-06
aF1.305284769159698e-10
aFnan
aF7.3647221654482564e-10
aFnan
aFnan
aFnan
aFnan
aF2.0807869316463723e-12
aFnan
aFnan
aF3.5004665832616411e-11
aFnan
aF3.4436231999279698e-07
aFnan
aFnan
aF7.0726535739140672e-11
aFnan
aFnan
aFnan
aFnan
aF1.0545037065767815e-13
aFnan
aFnan
aF1.2154166562083901e-12
aFnan
aF8.7755438471504021e-09
aFnan
aFnan
aFnan
aFnan
aFnan
aFnan
aFnan
aF5.7384652585312779e-15
aFnan
aFnan
aFnan
aFnan
aF1.7550405573274475e-10
aFnan
aFnan
aFnan
aFnan
aFnan
aFnan
aFnan
aFnan
aFnan
aFnan
aFnan
aFnan
aF1.2619238987099379e-11
aFnan
aFnan
aFnan
aFnan
aFnan
aFnan
atbag20
(g21
(I0
tS'b'
tRp155
(I1
(I1
I13
tg50
I00
S'\x00\x00\x00\x00\x00\x00\xf8\x7f\x00\x00\x00\x00\x00\x00\xf8\x7f\x00\x00\x00\x00\x00\x00\xf8\x7f\x00\x00\x00\x00\x00\x00\xf8\x7f\x00\x00\x00\x00\x00\x00\xf8\x7f\x00\x00\x00\x00\x00\x00\xf8\x7f\x00\x00\x00\x00\x00\x00\xf8\x7f\x00\x00\x00\x00\x00\x00\xf8\x7f\x00\x00\x00\x00\x00\x00\xf8\x7f\x00\x00\x00\x00\x00\x00\xf8\x7f\x00\x00\x00\x00\x00\x00\xf8\x7f\x00\x00\x00\x00\x00\x00\xf8\x7f\x00\x00\x00\x00\x00\x00\xf8\x7f'
tba(lp156
g16
(g17
(dp157
g19
g20
(g21
(I0
tS'b'
tRp158
(I1
(I14
tg24
I00
S'\x00\x00\x00\x00\x00\x00\x00\x00\x01\x00\x00\x00\x00\x00\x00\x00\x02\x00\x00\x00\x00\x00\x00\x00\x03\x00\x00\x00\x00\x00\x00\x00\x04\x00\x00\x00\x00\x00\x00\x00\x05\x00\x00\x00\x00\x00\x00\x00\x06\x00\x00\x00\x00\x00\x00\x00\x07\x00\x00\x00\x00\x00\x00\x00\x08\x00\x00\x00\x00\x00\x00\x00\t\x00\x00\x00\x00\x00\x00\x00\n\x00\x00\x00\x00\x00\x00\x00\x0b\x00\x00\x00\x00\x00\x00\x00\x0c\x00\x00\x00\x00\x00\x00\x00\r\x00\x00\x00\x00\x00\x00\x00'
tbsg25
NstRp159
ag16
(g17
(dp160
g19
g20
(g21
(I0
tS'b'
tRp161
(I1
(I1
tg24
I00
S'\x0e\x00\x00\x00\x00\x00\x00\x00'
tbsg25
NstRp162
a(dp163
g71
(dp164
g73
g142
sg74
(lp165
(dp166
g77
g78
(I0
I14
I1
tRp167
sg80
g153
sa(dp168
g77
g78
(I14
I15
I1
tRp169
sg80
g155
sasstbsbsg81
g3
(g4
g5
NtRp170
(dp171
g8
g9
sg10
g11
sg12
g3
(g13
g5
NtRp172
((lp173
g16
(g17
(dp174
g19
g20
(g21
(I0
tS'b'
tRp175
(I1
(I18
tg24
I00
S'\x00\x00\x00\x00\x00\x00\x00\x00\x01\x00\x00\x00\x00\x00\x00\x00\x02\x00\x00\x00\x00\x00\x00\x00\x03\x00\x00\x00\x00\x00\x00\x00\x04\x00\x00\x00\x00\x00\x00\x00\x05\x00\x00\x00\x00\x00\x00\x00\x06\x00\x00\x00\x00\x00\x00\x00\x07\x00\x00\x00\x00\x00\x00\x00\x08\x00\x00\x00\x00\x00\x00\x00\t\x00\x00\x00\x00\x00\x00\x00\n\x00\x00\x00\x00\x00\x00\x00\x0b\x00\x00\x00\x00\x00\x00\x00\x0c\x00\x00\x00\x00\x00\x00\x00\r\x00\x00\x00\x00\x00\x00\x00\x0e\x00\x00\x00\x00\x00\x00\x00\x0f\x00\x00\x00\x00\x00\x00\x00\x10\x00\x00\x00\x00\x00\x00\x00\x11\x00\x00\x00\x00\x00\x00\x00'
tbsg25
NstRp176
ag16
(g27
(dp177
g19
g20
(g21
(I0
tS'b'
tRp178
(I1
(I16
tg30
I00
(lp179
g92
ag93
ag94
ag95
ag96
ag97
ag98
ag99
ag100
ag101
ag102
ag103
aS'C'
ag104
ag105
ag106
atbsg25
S'Parameter'
p180
stRp181
a(lp182
g20
(g21
(I0
tS'b'
tRp183
(I1
(I17
I16
tg30
I00
(lp184
Fnan
aFnan
aFnan
aFnan
aFnan
aFnan
aFnan
aFnan
aFnan
aFnan
aFnan
aFnan
aFnan
aFnan
aFnan
aFnan
aF44.72986576112163
aF0.0082607351635545084
aF3539.5971848938498
aF27122.517340030572
aF0.068193290868578893
aF0.12129990394499557
aF0.041037381240071225
aF80.080755388071907
aF0.8273013972741925
aF0.068459509419915188
aF0.30770428377442727
aF0.20211559746262964
aF0.77603218390575779
aF6.8795156781601978
aF0.0808935083496094
aF6.1668416913186865
aF9.2861646757723406
aF0.003548824597737095
aF791.88196960635105
aFnan
aF0.025889756712934864
aF0.18787566995288557
aF0.037687445425245325
aF87.925824994110855
aF1.1812437080157734
aF0.0080835234794537358
aF0.21925291657281321
aF0.004367893661574529
aF0.035337964972715907
aF1.9731770598470639
aF0.1005475703730363
aF1.4525193182447955
aF3.5686222127134783
aF0.004457906607144603
aF169.4787381614442
aFnan
aF0.038182186600212387
aF0.14583584070222688
aF0.00037518382739248901
aF6.9287548966684369
aF1.5356645988199027
aF0.017170617521997555
aF0.04364835588619087
aF0.000443735616184604
aF0.010437710592409166
aF2.9691526598918774
aF0.098632074206900233
aFnan
aF0.7282467905562271
aF0.0003161407889408635
aF74.284139241237426
aFnan
aF0.0012375828917414178
aF0.044801609432935985
aF0.00017131377349344223
aF4.5352811270687141
aF0.10559795112664183
aF0.018357992514939081
aF0.023456951452082819
aF0.00049816604954111554
aF0.0014354579794462197
aFnan
aF0.13594060371908245
aFnan
aF0.00025749102482564012
aF0.00025435625400435646
aF39.292049833871715
aFnan
aF0.0021910441728040797
aF0.018357708459915023
aF0.00013445070505702095
aF12.75506263293579
aF0.020325241921223203
aF0.032213077745811225
aF0.020979948510195356
aF0.00032943872334012525
aF0.00093179672289056548
aFnan
aFnan
aFnan
aF0.00018816694162637759
aF0.00028262718728594427
aF10.89534561457549
aFnan
aF1.4732974664810605e-05
aF0.017443281268040733
aF9.0842275437541531e-06
aFnan
aF0.0092310382362814636
aF0.10044507434454336
aF0.0010615896849657247
aF0.00011767990812527884
aF0.0010297955263904868
aFnan
aFnan
aFnan
aF7.6150606645342123e-05
aF0.00049424211405844909
aF4.0751104958253563
aFnan
aF3.2085911783052978e-07
aF0.0071290715393721449
aF6.869959753852406e-07
aFnan
aF0.0012867024278975236
aFnan
aF0.00053274868149344456
aF0.00010301466426043682
aF0.0019026184269184121
aFnan
aFnan
aFnan
aF3.7331561486553255e-06
aFnan
aF4.9457206105435034
aFnan
aF7.731520146325721e-09
aF0.0059634978484228718
aF6.0549227159922836e-07
aFnan
aF9.3394297668858428e-05
aFnan
aF0.00029122382207447117
aF0.00020141283709507185
aF0.0024341132421394907
aFnan
aFnan
aFnan
aF2.1311686282388109e-07
aFnan
aF1.7510011184131145
aFnan
aF2.4046090674190168e-09
aF0.0022047337310611148
aF1.8736232204608072e-07
aFnan
aF0.00011473872196532398
aFnan
aF3.0355704431883623e-05
aF8.2806707893068321e-05
aFnan
aFnan
aFnan
aFnan
aF1.6472134234390978e-07
aFnan
aF1.253283291880507
aFnan
aF4.6186204860632074e-10
aFnan
aF1.7083351899760402e-08
aFnan
aF8.0416262653315584e-06
aFnan
aF4.0119131647031736e-05
aF0.00015776892427243894
aFnan
aFnan
aFnan
aFnan
aF3.106227381977078e-07
aFnan
aF1.2173693456788897
aFnan
aF5.3246451692245955e-10
aFnan
aF1.1658006338066684e-08
aFnan
aF7.1293586154652644e-06
aFnan
aF4.9996930755469293e-06
aFnan
aFnan
aFnan
aFnan
aFnan
aF7.4938952820957638e-09
aFnan
aFnan
aFnan
aF2.0910412290575664e-10
aFnan
aF4.4314341085538445e-10
aFnan
aF4.0429428818100632e-06
aFnan
aF2.3990637885162869e-06
aFnan
aFnan
aFnan
aFnan
aFnan
aF6.1106675275368616e-12
aFnan
aFnan
aFnan
aF5.6041116192062645e-11
aFnan
aF1.8589130235113771e-11
aFnan
aFnan
aFnan
aF7.8771293487989169e-08
aFnan
aFnan
aFnan
aFnan
aFnan
aFnan
aFnan
aFnan
aFnan
aF1.0626499680199686e-11
aFnan
aF2.7939317526204377e-12
aFnan
aFnan
aFnan
aF3.2054927601166128e-09
aFnan
aFnan
aFnan
aFnan
aFnan
aFnan
aFnan
aFnan
aFnan
aFnan
aFnan
aF8.9983576145868938e-14
aFnan
aFnan
aFnan
aF1.6580514738961938e-10
aFnan
aFnan
aFnan
aFnan
aFnan
aFnan
aFnan
aFnan
aFnan
aFnan
aFnan
aFnan
aFnan
aFnan
aFnan
aF2.6851409984374186e-11
aFnan
aFnan
aFnan
aFnan
aFnan
atbag20
(g21
(I0
tS'b'
tRp185
(I1
(I1
I16
tg50
I00
S'\x00\x00\x00\x00\x00\x00\xf8\x7f\x00\x00\x00\x00\x00\x00\xf8\x7f\x00\x00\x00\x00\x00\x00\xf8\x7f\x00\x00\x00\x00\x00\x00\xf8\x7f\x00\x00\x00\x00\x00\x00\xf8\x7f\x00\x00\x00\x00\x00\x00\xf8\x7f\x00\x00\x00\x00\x00\x00\xf8\x7f\x00\x00\x00\x00\x00\x00\xf8\x7f\x00\x00\x00\x00\x00\x00\xf8\x7f\x00\x00\x00\x00\x00\x00\xf8\x7f\x00\x00\x00\x00\x00\x00\xf8\x7f\x00\x00\x00\x00\x00\x00\xf8\x7f\x00\x00\x00\x00\x00\x00\xf8\x7f\x00\x00\x00\x00\x00\x00\xf8\x7f\x00\x00\x00\x00\x00\x00\xf8\x7f\x00\x00\x00\x00\x00\x00\xf8\x7f'
tba(lp186
g16
(g17
(dp187
g19
g20
(g21
(I0
tS'b'
tRp188
(I1
(I17
tg24
I00
S'\x00\x00\x00\x00\x00\x00\x00\x00\x01\x00\x00\x00\x00\x00\x00\x00\x02\x00\x00\x00\x00\x00\x00\x00\x03\x00\x00\x00\x00\x00\x00\x00\x04\x00\x00\x00\x00\x00\x00\x00\x05\x00\x00\x00\x00\x00\x00\x00\x06\x00\x00\x00\x00\x00\x00\x00\x07\x00\x00\x00\x00\x00\x00\x00\x08\x00\x00\x00\x00\x00\x00\x00\t\x00\x00\x00\x00\x00\x00\x00\n\x00\x00\x00\x00\x00\x00\x00\x0b\x00\x00\x00\x00\x00\x00\x00\x0c\x00\x00\x00\x00\x00\x00\x00\r\x00\x00\x00\x00\x00\x00\x00\x0e\x00\x00\x00\x00\x00\x00\x00\x0f\x00\x00\x00\x00\x00\x00\x00\x10\x00\x00\x00\x00\x00\x00\x00'
tbsg25
NstRp189
ag16
(g17
(dp190
g19
g20
(g21
(I0
tS'b'
tRp191
(I1
(I1
tg24
I00
S'\x11\x00\x00\x00\x00\x00\x00\x00'
tbsg25
NstRp192
a(dp193
g71
(dp194
g73
g173
sg74
(lp195
(dp196
g77
g78
(I0
I17
I1
tRp197
sg80
g183
sa(dp198
g77
g78
(I17
I18
I1
tRp199
sg80
g185
sasstbsbstp200
.